target datalayout = "e-m:e-p270:32:32-p271:32:32-p272:64:64-i64:64-i128:128-f80:128-n8:16:32:64-S128"
target triple = "x86_64-pc-linux-gnu"

%"class.std::__cxx11::basic_string" = type { %"struct.std::__cxx11::basic_string<char>::_Alloc_hider", i64, %union.anon }
%"struct.std::__cxx11::basic_string<char>::_Alloc_hider" = type { ptr }
%union.anon = type { i64, [8 x i8] }
%"struct.faiss::IOWriter" = type { ptr, %"class.std::__cxx11::basic_string" }
%"struct.faiss::ClusteringParameters" = type { i32, i32, i8, i8, i8, i8, i8, i32, i32, i32, i64 }
%"class.std::vector.23" = type { %"struct.std::_Vector_base.24" }
%"struct.std::_Vector_base.24" = type { %"struct.std::_Vector_base<long, std::allocator<long>>::_Vector_impl" }
%"struct.std::_Vector_base<long, std::allocator<long>>::_Vector_impl" = type { %"struct.std::_Vector_base<long, std::allocator<long>>::_Vector_impl_data" }
%"struct.std::_Vector_base<long, std::allocator<long>>::_Vector_impl_data" = type { ptr, ptr, ptr }
%"struct.faiss::Index.base" = type <{ ptr, i32, [4 x i8], i64, i8, i8, [2 x i8], i32, float }>
%"struct.faiss::IndexIVFInterface" = type { ptr, %"struct.faiss::Level1Quantizer", i64, i64 }
%"struct.faiss::Level1Quantizer" = type { ptr, i64, i8, i8, %"struct.faiss::ClusteringParameters", ptr }
%"struct.faiss::DirectMap" = type { i32, %"class.std::vector.23", %"class.std::unordered_map" }
%"class.std::unordered_map" = type { %"class.std::_Hashtable" }
%"class.std::_Hashtable" = type { ptr, i64, %"struct.std::__detail::_Hash_node_base", i64, %"struct.std::__detail::_Prime_rehash_policy", ptr }
%"struct.std::__detail::_Hash_node_base" = type { ptr }
%"struct.std::__detail::_Prime_rehash_policy" = type { float, i64 }
%"struct.faiss::IndexIVF" = type <{ %"struct.faiss::Index.base", [4 x i8], %"struct.faiss::IndexIVFInterface", ptr, i8, [7 x i8], i64, i32, i32, %"struct.faiss::DirectMap", i8, [7 x i8] }>

@.str.1 = private unnamed_addr constant [55 x i8] c"Error: '%s' failed: write error in %s: %zd != %zd (%s)\00", align 1
@.str.2 = private unnamed_addr constant [11 x i8] c"ret == (1)\00", align 1
@.str.3 = private unnamed_addr constant [116 x i8] c"generated/home/dtcxzyw/WorkSpace/Projects/compilers/llvm-opt-benchmark/bench/faiss/faiss/faiss/impl/index_write.cpp\00", align 1
@_ZTIN5faiss14FaissExceptionE = external constant ptr
@__PRETTY_FUNCTION__._ZN5faissL16write_ivf_headerEPKNS_8IndexIVFEPNS_8IOWriterE = private unnamed_addr constant [59 x i8] c"void faiss::write_ivf_header(const IndexIVF *, IOWriter *)\00", align 1

; Function Attrs: mustprogress uwtable
define internal void @_ZN5faissL16write_ivf_headerEPKNS_8IndexIVFEPNS_8IOWriterE(ptr noundef %0, ptr noundef %1) #4 personality ptr @__gxx_personality_v0 {
  %3 = alloca ptr, align 8
  %4 = alloca ptr, align 8
  %5 = alloca i64, align 8
  %6 = alloca %"class.std::__cxx11::basic_string", align 8
  %7 = alloca i32, align 4
  %8 = alloca ptr, align 8
  %9 = alloca i32, align 4
  %10 = alloca i64, align 8
  %11 = alloca %"class.std::__cxx11::basic_string", align 8
  %12 = alloca i32, align 4
  store ptr %0, ptr %3, align 8
  store ptr %1, ptr %4, align 8
  %13 = load ptr, ptr %3, align 8
  %14 = load ptr, ptr %4, align 8
  call void @_ZN5faissL18write_index_headerEPKNS_5IndexEPNS_8IOWriterE(ptr noundef %13, ptr noundef %14)
  %15 = load ptr, ptr %4, align 8
  %16 = load ptr, ptr %3, align 8
  %17 = getelementptr inbounds i8, ptr %16, i64 48
  %18 = getelementptr inbounds %"struct.faiss::Level1Quantizer", ptr %17, i32 0, i32 1
  %19 = load ptr, ptr %15, align 8
  %20 = getelementptr inbounds ptr, ptr %19, i64 0
  %21 = load ptr, ptr %20, align 8
  %22 = call noundef i64 %21(ptr noundef nonnull align 8 dereferenceable(40) %15, ptr noundef %18, i64 noundef 8, i64 noundef 1)
  store i64 %22, ptr %5, align 8
  br label %23

23:                                               ; preds = %2
  %24 = load i64, ptr %5, align 8
  %25 = icmp eq i64 %24, 1
  br i1 %25, label %63, label %26

26:                                               ; preds = %23
  br label %27

27:                                               ; preds = %26
  call void @_ZNSt7__cxx1112basic_stringIcSt11char_traitsIcESaIcEEC1Ev(ptr noundef nonnull align 8 dereferenceable(32) %6) #3
  %28 = load ptr, ptr %4, align 8
  %29 = getelementptr inbounds %"struct.faiss::IOWriter", ptr %28, i32 0, i32 1
  %30 = call noundef ptr @_ZNKSt7__cxx1112basic_stringIcSt11char_traitsIcESaIcEE5c_strEv(ptr noundef nonnull align 8 dereferenceable(32) %29) #3
  %31 = load i64, ptr %5, align 8
  %32 = call ptr @__errno_location() #15
  %33 = load i32, ptr %32, align 4
  %34 = call ptr @strerror(i32 noundef %33) #3
  %35 = call i32 (ptr, i64, ptr, ...) @snprintf(ptr noundef null, i64 noundef 0, ptr noundef @.str.1, ptr noundef @.str.2, ptr noundef %30, i64 noundef %31, i64 noundef 1, ptr noundef %34) #3
  store i32 %35, ptr %7, align 4
  %36 = load i32, ptr %7, align 4
  %37 = add nsw i32 %36, 1
  %38 = sext i32 %37 to i64
  invoke void @_ZNSt7__cxx1112basic_stringIcSt11char_traitsIcESaIcEE6resizeEm(ptr noundef nonnull align 8 dereferenceable(32) %6, i64 noundef %38)
          to label %39 unwind label %53

39:                                               ; preds = %27
  %40 = invoke noundef nonnull align 1 dereferenceable(1) ptr @_ZNSt7__cxx1112basic_stringIcSt11char_traitsIcESaIcEEixEm(ptr noundef nonnull align 8 dereferenceable(32) %6, i64 noundef 0)
          to label %41 unwind label %53

41:                                               ; preds = %39
  %42 = call noundef i64 @_ZNKSt7__cxx1112basic_stringIcSt11char_traitsIcESaIcEE4sizeEv(ptr noundef nonnull align 8 dereferenceable(32) %6) #3
  %43 = load ptr, ptr %4, align 8
  %44 = getelementptr inbounds %"struct.faiss::IOWriter", ptr %43, i32 0, i32 1
  %45 = call noundef ptr @_ZNKSt7__cxx1112basic_stringIcSt11char_traitsIcESaIcEE5c_strEv(ptr noundef nonnull align 8 dereferenceable(32) %44) #3
  %46 = load i64, ptr %5, align 8
  %47 = call ptr @__errno_location() #15
  %48 = load i32, ptr %47, align 4
  %49 = call ptr @strerror(i32 noundef %48) #3
  %50 = call i32 (ptr, i64, ptr, ...) @snprintf(ptr noundef %40, i64 noundef %42, ptr noundef @.str.1, ptr noundef @.str.2, ptr noundef %45, i64 noundef %46, i64 noundef 1, ptr noundef %49) #3
  %51 = call ptr @__cxa_allocate_exception(i64 40) #3
  invoke void @_ZN5faiss14FaissExceptionC1ERKNSt7__cxx1112basic_stringIcSt11char_traitsIcESaIcEEEPKcSA_i(ptr noundef nonnull align 8 dereferenceable(40) %51, ptr noundef nonnull align 8 dereferenceable(32) %6, ptr noundef @__PRETTY_FUNCTION__._ZN5faissL16write_ivf_headerEPKNS_8IndexIVFEPNS_8IOWriterE, ptr noundef @.str.3, i32 noundef 385)
          to label %52 unwind label %57

52:                                               ; preds = %41
  invoke void @__cxa_throw(ptr %51, ptr @_ZTIN5faiss14FaissExceptionE, ptr @_ZN5faiss14FaissExceptionD2Ev) #16
          to label %128 unwind label %53

53:                                               ; preds = %52, %39, %27
  %54 = landingpad { ptr, i32 }
          cleanup
  %55 = extractvalue { ptr, i32 } %54, 0
  store ptr %55, ptr %8, align 8
  %56 = extractvalue { ptr, i32 } %54, 1
  store i32 %56, ptr %9, align 4
  br label %61

57:                                               ; preds = %41
  %58 = landingpad { ptr, i32 }
          cleanup
  %59 = extractvalue { ptr, i32 } %58, 0
  store ptr %59, ptr %8, align 8
  %60 = extractvalue { ptr, i32 } %58, 1
  store i32 %60, ptr %9, align 4
  call void @__cxa_free_exception(ptr %51) #3
  br label %61

61:                                               ; preds = %57, %53
  call void @_ZNSt7__cxx1112basic_stringIcSt11char_traitsIcESaIcEED1Ev(ptr noundef nonnull align 8 dereferenceable(32) %6) #3
  br label %123

62:                                               ; No predecessors!
  br label %63

63:                                               ; preds = %62, %23
  br label %64

64:                                               ; preds = %63
  %65 = load ptr, ptr %4, align 8
  %66 = load ptr, ptr %3, align 8
  %67 = getelementptr inbounds i8, ptr %66, i64 40
  %68 = getelementptr inbounds %"struct.faiss::IndexIVFInterface", ptr %67, i32 0, i32 2
  %69 = load ptr, ptr %65, align 8
  %70 = getelementptr inbounds ptr, ptr %69, i64 0
  %71 = load ptr, ptr %70, align 8
  %72 = call noundef i64 %71(ptr noundef nonnull align 8 dereferenceable(40) %65, ptr noundef %68, i64 noundef 8, i64 noundef 1)
  store i64 %72, ptr %10, align 8
  br label %73

73:                                               ; preds = %64
  %74 = load i64, ptr %10, align 8
  %75 = icmp eq i64 %74, 1
  br i1 %75, label %113, label %76

76:                                               ; preds = %73
  br label %77

77:                                               ; preds = %76
  call void @_ZNSt7__cxx1112basic_stringIcSt11char_traitsIcESaIcEEC1Ev(ptr noundef nonnull align 8 dereferenceable(32) %11) #3
  %78 = load ptr, ptr %4, align 8
  %79 = getelementptr inbounds %"struct.faiss::IOWriter", ptr %78, i32 0, i32 1
  %80 = call noundef ptr @_ZNKSt7__cxx1112basic_stringIcSt11char_traitsIcESaIcEE5c_strEv(ptr noundef nonnull align 8 dereferenceable(32) %79) #3
  %81 = load i64, ptr %10, align 8
  %82 = call ptr @__errno_location() #15
  %83 = load i32, ptr %82, align 4
  %84 = call ptr @strerror(i32 noundef %83) #3
  %85 = call i32 (ptr, i64, ptr, ...) @snprintf(ptr noundef null, i64 noundef 0, ptr noundef @.str.1, ptr noundef @.str.2, ptr noundef %80, i64 noundef %81, i64 noundef 1, ptr noundef %84) #3
  store i32 %85, ptr %12, align 4
  %86 = load i32, ptr %12, align 4
  %87 = add nsw i32 %86, 1
  %88 = sext i32 %87 to i64
  invoke void @_ZNSt7__cxx1112basic_stringIcSt11char_traitsIcESaIcEE6resizeEm(ptr noundef nonnull align 8 dereferenceable(32) %11, i64 noundef %88)
          to label %89 unwind label %103

89:                                               ; preds = %77
  %90 = invoke noundef nonnull align 1 dereferenceable(1) ptr @_ZNSt7__cxx1112basic_stringIcSt11char_traitsIcESaIcEEixEm(ptr noundef nonnull align 8 dereferenceable(32) %11, i64 noundef 0)
          to label %91 unwind label %103

91:                                               ; preds = %89
  %92 = call noundef i64 @_ZNKSt7__cxx1112basic_stringIcSt11char_traitsIcESaIcEE4sizeEv(ptr noundef nonnull align 8 dereferenceable(32) %11) #3
  %93 = load ptr, ptr %4, align 8
  %94 = getelementptr inbounds %"struct.faiss::IOWriter", ptr %93, i32 0, i32 1
  %95 = call noundef ptr @_ZNKSt7__cxx1112basic_stringIcSt11char_traitsIcESaIcEE5c_strEv(ptr noundef nonnull align 8 dereferenceable(32) %94) #3
  %96 = load i64, ptr %10, align 8
  %97 = call ptr @__errno_location() #15
  %98 = load i32, ptr %97, align 4
  %99 = call ptr @strerror(i32 noundef %98) #3
  %100 = call i32 (ptr, i64, ptr, ...) @snprintf(ptr noundef %90, i64 noundef %92, ptr noundef @.str.1, ptr noundef @.str.2, ptr noundef %95, i64 noundef %96, i64 noundef 1, ptr noundef %99) #3
  %101 = call ptr @__cxa_allocate_exception(i64 40) #3
  invoke void @_ZN5faiss14FaissExceptionC1ERKNSt7__cxx1112basic_stringIcSt11char_traitsIcESaIcEEEPKcSA_i(ptr noundef nonnull align 8 dereferenceable(40) %101, ptr noundef nonnull align 8 dereferenceable(32) %11, ptr noundef @__PRETTY_FUNCTION__._ZN5faissL16write_ivf_headerEPKNS_8IndexIVFEPNS_8IOWriterE, ptr noundef @.str.3, i32 noundef 386)
          to label %102 unwind label %107

102:                                              ; preds = %91
  invoke void @__cxa_throw(ptr %101, ptr @_ZTIN5faiss14FaissExceptionE, ptr @_ZN5faiss14FaissExceptionD2Ev) #16
          to label %128 unwind label %103

103:                                              ; preds = %102, %89, %77
  %104 = landingpad { ptr, i32 }
          cleanup
  %105 = extractvalue { ptr, i32 } %104, 0
  store ptr %105, ptr %8, align 8
  %106 = extractvalue { ptr, i32 } %104, 1
  store i32 %106, ptr %9, align 4
  br label %111

107:                                              ; preds = %91
  %108 = landingpad { ptr, i32 }
          cleanup
  %109 = extractvalue { ptr, i32 } %108, 0
  store ptr %109, ptr %8, align 8
  %110 = extractvalue { ptr, i32 } %108, 1
  store i32 %110, ptr %9, align 4
  call void @__cxa_free_exception(ptr %101) #3
  br label %111

111:                                              ; preds = %107, %103
  call void @_ZNSt7__cxx1112basic_stringIcSt11char_traitsIcESaIcEED1Ev(ptr noundef nonnull align 8 dereferenceable(32) %11) #3
  br label %123

112:                                              ; No predecessors!
  br label %113

113:                                              ; preds = %112, %73
  br label %114

114:                                              ; preds = %113
  %115 = load ptr, ptr %3, align 8
  %116 = getelementptr inbounds i8, ptr %115, i64 48
  %117 = getelementptr inbounds %"struct.faiss::Level1Quantizer", ptr %116, i32 0, i32 0
  %118 = load ptr, ptr %117, align 8
  %119 = load ptr, ptr %4, align 8
  call void @_ZN5faiss11write_indexEPKNS_5IndexEPNS_8IOWriterE(ptr noundef %118, ptr noundef %119)
  %120 = load ptr, ptr %3, align 8
  %121 = getelementptr inbounds %"struct.faiss::IndexIVF", ptr %120, i32 0, i32 9
  %122 = load ptr, ptr %4, align 8
  call void @_ZN5faissL16write_direct_mapEPKNS_9DirectMapEPNS_8IOWriterE(ptr noundef %121, ptr noundef %122)
  ret void

123:                                              ; preds = %111, %61
  %124 = load ptr, ptr %8, align 8
  %125 = load i32, ptr %9, align 4
  %126 = insertvalue { ptr, i32 } poison, ptr %124, 0
  %127 = insertvalue { ptr, i32 } %126, i32 %125, 1
  resume { ptr, i32 } %127

128:                                              ; preds = %102, %52
  unreachable
}