; Function Attrs: mustprogress uwtable
define internal fastcc void @_ZN5faissL16write_ivf_headerEPKNS_8IndexIVFEPNS_8IOWriterE(ptr noundef %0, ptr noundef %1) unnamed_addr #3 personality ptr @__gxx_personality_v0 {
  %3 = alloca %"class.std::__cxx11::basic_string", align 8
  %4 = alloca %"class.std::__cxx11::basic_string", align 8
  tail call fastcc void @_ZN5faissL18write_index_headerEPKNS_5IndexEPNS_8IOWriterE(ptr noundef %0, ptr noundef %1)
  %5 = getelementptr inbounds i8, ptr %0, i64 56
  %6 = load ptr, ptr %1, align 8
  %7 = load ptr, ptr %6, align 8
  %8 = tail call noundef i64 %7(ptr noundef nonnull align 8 dereferenceable(40) %1, ptr noundef nonnull %5, i64 noundef 8, i64 noundef 1)
  %9 = icmp eq i64 %8, 1
  br i1 %9, label %33, label %10

10:                                               ; preds = %2
  call void @_ZNSt7__cxx1112basic_stringIcSt11char_traitsIcESaIcEEC1Ev(ptr noundef nonnull align 8 dereferenceable(32) %3) #18
  %11 = getelementptr inbounds i8, ptr %1, i64 8
  %12 = call noundef ptr @_ZNKSt7__cxx1112basic_stringIcSt11char_traitsIcESaIcEE5c_strEv(ptr noundef nonnull align 8 dereferenceable(32) %11) #18
  %13 = tail call ptr @__errno_location() #19
  %14 = load i32, ptr %13, align 4
  %15 = call ptr @strerror(i32 noundef %14) #18
  %16 = call i32 (ptr, i64, ptr, ...) @snprintf(ptr noundef null, i64 noundef 0, ptr noundef nonnull @.str.1, ptr noundef nonnull @.str.2, ptr noundef %12, i64 noundef %8, i64 noundef 1, ptr noundef %15) #18
  %17 = add nsw i32 %16, 1
  %18 = sext i32 %17 to i64
  invoke void @_ZNSt7__cxx1112basic_stringIcSt11char_traitsIcESaIcEE6resizeEm(ptr noundef nonnull align 8 dereferenceable(32) %3, i64 noundef %18)
          to label %19 unwind label %29

19:                                               ; preds = %10
  %20 = invoke noundef nonnull align 1 dereferenceable(1) ptr @_ZNSt7__cxx1112basic_stringIcSt11char_traitsIcESaIcEEixEm(ptr noundef nonnull align 8 dereferenceable(32) %3, i64 noundef 0)
          to label %21 unwind label %29

21:                                               ; preds = %19
  %22 = call noundef i64 @_ZNKSt7__cxx1112basic_stringIcSt11char_traitsIcESaIcEE4sizeEv(ptr noundef nonnull align 8 dereferenceable(32) %3) #18
  %23 = call noundef ptr @_ZNKSt7__cxx1112basic_stringIcSt11char_traitsIcESaIcEE5c_strEv(ptr noundef nonnull align 8 dereferenceable(32) %11) #18
  %24 = load i32, ptr %13, align 4
  %25 = call ptr @strerror(i32 noundef %24) #18
  %26 = call i32 (ptr, i64, ptr, ...) @snprintf(ptr noundef nonnull %20, i64 noundef %22, ptr noundef nonnull @.str.1, ptr noundef nonnull @.str.2, ptr noundef %23, i64 noundef %8, i64 noundef 1, ptr noundef %25) #18
  %27 = call ptr @__cxa_allocate_exception(i64 40) #18
  invoke void @_ZN5faiss14FaissExceptionC1ERKNSt7__cxx1112basic_stringIcSt11char_traitsIcESaIcEEEPKcSA_i(ptr noundef nonnull align 8 dereferenceable(40) %27, ptr noundef nonnull align 8 dereferenceable(32) %3, ptr noundef nonnull @__PRETTY_FUNCTION__._ZN5faissL16write_ivf_headerEPKNS_8IndexIVFEPNS_8IOWriterE, ptr noundef nonnull @.str.3, i32 noundef 385)
          to label %28 unwind label %31

28:                                               ; preds = %21
  invoke void @__cxa_throw(ptr nonnull %27, ptr nonnull @_ZTIN5faiss14FaissExceptionE, ptr nonnull @_ZN5faiss14FaissExceptionD2Ev) #20
          to label %67 unwind label %29

29:                                               ; preds = %28, %19, %10
  %30 = landingpad { ptr, i32 }
          cleanup
  br label %66

31:                                               ; preds = %21
  %32 = landingpad { ptr, i32 }
          cleanup
  call void @__cxa_free_exception(ptr %27) #18
  br label %66

33:                                               ; preds = %2
  %34 = getelementptr inbounds i8, ptr %0, i64 120
  %35 = load ptr, ptr %1, align 8
  %36 = load ptr, ptr %35, align 8
  %37 = tail call noundef i64 %36(ptr noundef nonnull align 8 dereferenceable(40) %1, ptr noundef nonnull %34, i64 noundef 8, i64 noundef 1)
  %38 = icmp eq i64 %37, 1
  br i1 %38, label %62, label %39

39:                                               ; preds = %33
  call void @_ZNSt7__cxx1112basic_stringIcSt11char_traitsIcESaIcEEC1Ev(ptr noundef nonnull align 8 dereferenceable(32) %4) #18
  %40 = getelementptr inbounds i8, ptr %1, i64 8
  %41 = call noundef ptr @_ZNKSt7__cxx1112basic_stringIcSt11char_traitsIcESaIcEE5c_strEv(ptr noundef nonnull align 8 dereferenceable(32) %40) #18
  %42 = tail call ptr @__errno_location() #19
  %43 = load i32, ptr %42, align 4
  %44 = call ptr @strerror(i32 noundef %43) #18
  %45 = call i32 (ptr, i64, ptr, ...) @snprintf(ptr noundef null, i64 noundef 0, ptr noundef nonnull @.str.1, ptr noundef nonnull @.str.2, ptr noundef %41, i64 noundef %37, i64 noundef 1, ptr noundef %44) #18
  %46 = add nsw i32 %45, 1
  %47 = sext i32 %46 to i64
  invoke void @_ZNSt7__cxx1112basic_stringIcSt11char_traitsIcESaIcEE6resizeEm(ptr noundef nonnull align 8 dereferenceable(32) %4, i64 noundef %47)
          to label %48 unwind label %58

48:                                               ; preds = %39
  %49 = invoke noundef nonnull align 1 dereferenceable(1) ptr @_ZNSt7__cxx1112basic_stringIcSt11char_traitsIcESaIcEEixEm(ptr noundef nonnull align 8 dereferenceable(32) %4, i64 noundef 0)
          to label %50 unwind label %58

50:                                               ; preds = %48
  %51 = call noundef i64 @_ZNKSt7__cxx1112basic_stringIcSt11char_traitsIcESaIcEE4sizeEv(ptr noundef nonnull align 8 dereferenceable(32) %4) #18
  %52 = call noundef ptr @_ZNKSt7__cxx1112basic_stringIcSt11char_traitsIcESaIcEE5c_strEv(ptr noundef nonnull align 8 dereferenceable(32) %40) #18
  %53 = load i32, ptr %42, align 4
  %54 = call ptr @strerror(i32 noundef %53) #18
  %55 = call i32 (ptr, i64, ptr, ...) @snprintf(ptr noundef nonnull %49, i64 noundef %51, ptr noundef nonnull @.str.1, ptr noundef nonnull @.str.2, ptr noundef %52, i64 noundef %37, i64 noundef 1, ptr noundef %54) #18
  %56 = call ptr @__cxa_allocate_exception(i64 40) #18
  invoke void @_ZN5faiss14FaissExceptionC1ERKNSt7__cxx1112basic_stringIcSt11char_traitsIcESaIcEEEPKcSA_i(ptr noundef nonnull align 8 dereferenceable(40) %56, ptr noundef nonnull align 8 dereferenceable(32) %4, ptr noundef nonnull @__PRETTY_FUNCTION__._ZN5faissL16write_ivf_headerEPKNS_8IndexIVFEPNS_8IOWriterE, ptr noundef nonnull @.str.3, i32 noundef 386)
          to label %57 unwind label %60

57:                                               ; preds = %50
  invoke void @__cxa_throw(ptr nonnull %56, ptr nonnull @_ZTIN5faiss14FaissExceptionE, ptr nonnull @_ZN5faiss14FaissExceptionD2Ev) #20
          to label %67 unwind label %58

58:                                               ; preds = %57, %48, %39
  %59 = landingpad { ptr, i32 }
          cleanup
  br label %66

60:                                               ; preds = %50
  %61 = landingpad { ptr, i32 }
          cleanup
  call void @__cxa_free_exception(ptr %56) #18
  br label %66

62:                                               ; preds = %33
  %63 = getelementptr inbounds i8, ptr %0, i64 48
  %64 = load ptr, ptr %63, align 8
  tail call void @_ZN5faiss11write_indexEPKNS_5IndexEPNS_8IOWriterE(ptr noundef %64, ptr noundef nonnull %1)
  %65 = getelementptr inbounds i8, ptr %0, i64 168
  tail call fastcc void @_ZN5faissL16write_direct_mapEPKNS_9DirectMapEPNS_8IOWriterE(ptr noundef nonnull %65, ptr noundef nonnull %1)
  ret void

66:                                               ; preds = %58, %60, %29, %31
  %.sink = phi ptr [ %3, %31 ], [ %3, %29 ], [ %4, %60 ], [ %4, %58 ]
  %.pn29.pn = phi { ptr, i32 } [ %32, %31 ], [ %30, %29 ], [ %61, %60 ], [ %59, %58 ]
  call void @_ZNSt7__cxx1112basic_stringIcSt11char_traitsIcESaIcEED1Ev(ptr noundef nonnull align 8 dereferenceable(32) %.sink) #18
  resume { ptr, i32 } %.pn29.pn

67:                                               ; preds = %57, %28
  unreachable
}